target datalayout = "e-m:e-p270:32:32-p271:32:32-p272:64:64-i64:64-i128:128-f80:128-n8:16:32:64-S128"
target triple = "x86_64-pc-linux-gnu"

@.str.2 = private unnamed_addr constant [100 x i8] c"generated/home/dtcxzyw/WorkSpace/Projects/compilers/llvm-opt-benchmark/bench/hdf5/hdf5/src/H5Fint.c\00", align 1
@H5E_FILE_g = external global i64, align 8
@H5E_CANTFLUSH_g = external global i64, align 8
@__func__.H5F__flush = private unnamed_addr constant [11 x i8] c"H5F__flush\00", align 1
@H5E_CACHE_g = external global i64, align 8
@.str.118 = private unnamed_addr constant [26 x i8] c"unable to flush file data\00", align 1
@H5E_CANTRELEASE_g = external global i64, align 8
@.str.255 = private unnamed_addr constant [25 x i8] c"can't release file space\00", align 1
@__func__.H5F__flush_phase1 = private unnamed_addr constant [18 x i8] c"H5F__flush_phase1\00", align 1
@.str.265 = private unnamed_addr constant [30 x i8] c"unable to flush dataset cache\00", align 1

; Function Attrs: nounwind uwtable
define internal i32 @H5F__flush_phase1(ptr noundef %0) #0 {
  %2 = alloca ptr, align 8
  %3 = alloca i32, align 4
  %4 = alloca i8, align 1
  store ptr %0, ptr %2, align 8
  store i32 0, ptr %3, align 4
  store i8 0, ptr %4, align 1
  %5 = load ptr, ptr %2, align 8
  %6 = call i32 @H5D_flush_all(ptr noundef %5)
  %7 = icmp slt i32 %6, 0
  br i1 %7, label %8, label %21

8:                                                ; preds = %1
  br label %9

9:                                                ; preds = %8
  br label %10

10:                                               ; preds = %9
  br label %11

11:                                               ; preds = %10
  %12 = load i64, ptr @H5E_CACHE_g, align 8
  %13 = load i64, ptr @H5E_CANTFLUSH_g, align 8
  %14 = call i32 (ptr, ptr, i32, i64, i64, ptr, ...) @H5E_printf_stack(ptr noundef @.str.2, ptr noundef @__func__.H5F__flush_phase1, i32 noundef 2263, i64 noundef %12, i64 noundef %13, ptr noundef @.str.265)
  br label %15

15:                                               ; preds = %11
  store i8 1, ptr %4, align 1
  %16 = load i8, ptr %4, align 1
  %17 = trunc i8 %16 to i1
  %18 = zext i1 %17 to i8
  store i8 %18, ptr %4, align 1
  br label %19

19:                                               ; preds = %15
  store i32 -1, ptr %3, align 4
  br label %20

20:                                               ; preds = %19
  br label %21

21:                                               ; preds = %20, %1
  %22 = load ptr, ptr %2, align 8
  %23 = call i32 @H5MF_free_aggrs(ptr noundef %22)
  %24 = icmp slt i32 %23, 0
  br i1 %24, label %25, label %38

25:                                               ; preds = %21
  br label %26

26:                                               ; preds = %25
  br label %27

27:                                               ; preds = %26
  br label %28

28:                                               ; preds = %27
  %29 = load i64, ptr @H5E_FILE_g, align 8
  %30 = load i64, ptr @H5E_CANTRELEASE_g, align 8
  %31 = call i32 (ptr, ptr, i32, i64, i64, ptr, ...) @H5E_printf_stack(ptr noundef @.str.2, ptr noundef @__func__.H5F__flush_phase1, i32 noundef 2273, i64 noundef %29, i64 noundef %30, ptr noundef @.str.255)
  br label %32

32:                                               ; preds = %28
  store i8 1, ptr %4, align 1
  %33 = load i8, ptr %4, align 1
  %34 = trunc i8 %33 to i1
  %35 = zext i1 %34 to i8
  store i8 %35, ptr %4, align 1
  br label %36

36:                                               ; preds = %32
  store i32 -1, ptr %3, align 4
  br label %37

37:                                               ; preds = %36
  br label %38

38:                                               ; preds = %37, %21
  %39 = load i32, ptr %3, align 4
  ret i32 %39
}

; Function Attrs: nounwind uwtable
define i32 @H5F__flush(ptr noundef %0) #0 {
  %2 = alloca ptr, align 8
  %3 = alloca i32, align 4
  %4 = alloca i8, align 1
  store ptr %0, ptr %2, align 8
  store i32 0, ptr %3, align 4
  store i8 0, ptr %4, align 1
  %5 = load ptr, ptr %2, align 8
  %6 = call i32 @H5F__flush_phase1(ptr noundef %5)
  %7 = icmp slt i32 %6, 0
  br i1 %7, label %8, label %21

8:                                                ; preds = %1
  br label %9

9:                                                ; preds = %8
  br label %10

10:                                               ; preds = %9
  br label %11

11:                                               ; preds = %10
  %12 = load i64, ptr @H5E_CACHE_g, align 8
  %13 = load i64, ptr @H5E_CANTFLUSH_g, align 8
  %14 = call i32 (ptr, ptr, i32, i64, i64, ptr, ...) @H5E_printf_stack(ptr noundef @.str.2, ptr noundef @__func__.H5F__flush, i32 noundef 2379, i64 noundef %12, i64 noundef %13, ptr noundef @.str.118)
  br label %15

15:                                               ; preds = %11
  store i8 1, ptr %4, align 1
  %16 = load i8, ptr %4, align 1
  %17 = trunc i8 %16 to i1
  %18 = zext i1 %17 to i8
  store i8 %18, ptr %4, align 1
  br label %19

19:                                               ; preds = %15
  store i32 -1, ptr %3, align 4
  br label %20

20:                                               ; preds = %19
  br label %21

21:                                               ; preds = %20, %1
  %22 = load ptr, ptr %2, align 8
  %23 = call i32 @H5F__flush_phase2(ptr noundef %22, i1 noundef zeroext false)
  %24 = icmp slt i32 %23, 0
  br i1 %24, label %25, label %38

25:                                               ; preds = %21
  br label %26

26:                                               ; preds = %25
  br label %27

27:                                               ; preds = %26
  br label %28

28:                                               ; preds = %27
  %29 = load i64, ptr @H5E_CACHE_g, align 8
  %30 = load i64, ptr @H5E_CANTFLUSH_g, align 8
  %31 = call i32 (ptr, ptr, i32, i64, i64, ptr, ...) @H5E_printf_stack(ptr noundef @.str.2, ptr noundef @__func__.H5F__flush, i32 noundef 2384, i64 noundef %29, i64 noundef %30, ptr noundef @.str.118)
  br label %32

32:                                               ; preds = %28
  store i8 1, ptr %4, align 1
  %33 = load i8, ptr %4, align 1
  %34 = trunc i8 %33 to i1
  %35 = zext i1 %34 to i8
  store i8 %35, ptr %4, align 1
  br label %36

36:                                               ; preds = %32
  store i32 -1, ptr %3, align 4
  br label %37

37:                                               ; preds = %36
  br label %38

38:                                               ; preds = %37, %21
  %39 = load i32, ptr %3, align 4
  ret i32 %39
}