; Function Attrs: nounwind uwtable
define range(i32 -1, 1) i32 @H5F__flush(ptr noundef %0) local_unnamed_addr #0 {
  %2 = tail call i32 @H5D_flush_all(ptr noundef %0) #22
  %3 = icmp slt i32 %2, 0
  br i1 %3, label %4, label %.thread

4:                                                ; preds = %1
  %5 = load i64, ptr @H5E_CACHE_g, align 8
  %6 = load i64, ptr @H5E_CANTFLUSH_g, align 8
  %7 = tail call i32 (ptr, ptr, i32, i64, i64, ptr, ...) @H5E_printf_stack(ptr noundef nonnull @.str.2, ptr noundef nonnull @__func__.H5F__flush_phase1, i32 noundef 2263, i64 noundef %5, i64 noundef %6, ptr noundef nonnull @.str.265) #22
  %8 = tail call i32 @H5MF_free_aggrs(ptr noundef %0) #22
  %9 = icmp slt i32 %8, 0
  br i1 %9, label %H5F__flush_phase1.exit.thread, label %H5F__flush_phase1.exit

.thread:                                          ; preds = %1
  %10 = tail call i32 @H5MF_free_aggrs(ptr noundef %0) #22
  %11 = icmp slt i32 %10, 0
  br i1 %11, label %H5F__flush_phase1.exit.thread, label %H5F__flush_phase1.exit.thread5

H5F__flush_phase1.exit.thread:                    ; preds = %.thread, %4
  %12 = load i64, ptr @H5E_FILE_g, align 8
  %13 = load i64, ptr @H5E_CANTRELEASE_g, align 8
  %14 = tail call i32 (ptr, ptr, i32, i64, i64, ptr, ...) @H5E_printf_stack(ptr noundef nonnull @.str.2, ptr noundef nonnull @__func__.H5F__flush_phase1, i32 noundef 2273, i64 noundef %12, i64 noundef %13, ptr noundef nonnull @.str.255) #22
  br label %H5F__flush_phase1.exit

H5F__flush_phase1.exit:                           ; preds = %4, %H5F__flush_phase1.exit.thread
  %15 = load i64, ptr @H5E_CACHE_g, align 8
  %16 = load i64, ptr @H5E_CANTFLUSH_g, align 8
  %17 = tail call i32 (ptr, ptr, i32, i64, i64, ptr, ...) @H5E_printf_stack(ptr noundef nonnull @.str.2, ptr noundef nonnull @__func__.H5F__flush, i32 noundef 2379, i64 noundef %15, i64 noundef %16, ptr noundef nonnull @.str.118) #22
  br label %H5F__flush_phase1.exit.thread5

H5F__flush_phase1.exit.thread5:                   ; preds = %.thread, %H5F__flush_phase1.exit
  %.0 = phi i32 [ -1, %H5F__flush_phase1.exit ], [ 0, %.thread ]
  %18 = tail call fastcc i32 @H5F__flush_phase2(ptr noundef %0, i1 noundef zeroext false)
  %19 = icmp slt i32 %18, 0
  br i1 %19, label %20, label %24

20:                                               ; preds = %H5F__flush_phase1.exit.thread5
  %21 = load i64, ptr @H5E_CACHE_g, align 8
  %22 = load i64, ptr @H5E_CANTFLUSH_g, align 8
  %23 = tail call i32 (ptr, ptr, i32, i64, i64, ptr, ...) @H5E_printf_stack(ptr noundef nonnull @.str.2, ptr noundef nonnull @__func__.H5F__flush, i32 noundef 2384, i64 noundef %21, i64 noundef %22, ptr noundef nonnull @.str.118) #22
  br label %24

24:                                               ; preds = %20, %H5F__flush_phase1.exit.thread5
  %.1 = phi i32 [ -1, %20 ], [ %.0, %H5F__flush_phase1.exit.thread5 ]
  ret i32 %.1
}